Certificate:
    Data:
        Version: 3 (0x2)
        Serial Number:
            73:5e:29:b2:a4:31:d6:4d:ec:e7:5f:b9:30:61:59:60:8d:e0:c7:de
        Signature Algorithm: sha256WithRSAEncryption
        Issuer: C = FR, ST = IDF, L = Paris, O = NodeOPCUA, CN = NodeOPCUA-TEST
        Validity
            Not Before: Jan  2 21:34:04 2020 GMT
            Not After : Dec 29 21:34:04 2034 GMT
        Subject: C = FR, ST = IDF, L = Paris, O = NodeOPCUA, CN = NodeOPCUA-TEST
        Subject Public Key Info:
            Public Key Algorithm: rsaEncryption
                RSA Public-Key: (2048 bit)
                Modulus:
                    00:b0:eb:8d:30:e7:06:9a:49:22:84:ee:5b:1d:08:
                    af:db:23:5b:87:ff:1e:b7:f7:ef:97:25:2a:bf:de:
                    93:69:9f:48:11:8a:2f:69:14:d6:d0:d8:8f:af:c8:
                    53:39:cb:58:46:0a:9d:81:a0:26:0f:e4:c8:55:18:
                    14:62:12:62:7e:9d:1c:19:5c:9b:42:b3:de:f1:44:
                    29:fc:36:26:61:29:16:f9:84:c0:f9:99:c9:1c:1a:
                    70:6a:2d:9a:68:cb:b8:ee:d9:70:5c:3a:ca:05:d7:
                    a3:2a:99:c2:9b:48:76:12:d4:cf:64:00:3d:76:d7:
                    fc:81:c8:0b:9d:0e:87:ab:6a:ce:e8:ff:70:3a:e7:
                    cd:0d:c8:89:05:49:5e:c4:30:b5:07:39:7f:9f:cd:
                    a9:c7:93:3f:ea:b3:34:14:2b:3f:9e:04:fa:5f:af:
                    3d:1b:13:1b:12:33:8f:7a:b6:b1:30:ef:c5:0d:8a:
                    eb:cf:34:b5:5c:ae:f1:e8:e5:43:e3:9d:3b:46:a1:
                    b7:b9:57:6e:4d:c9:83:d3:86:39:a9:fd:36:50:dc:
                    e6:b7:36:17:d3:07:4e:44:d5:7d:d5:14:42:15:bb:
                    3d:61:62:da:69:b6:50:aa:32:63:e9:df:bc:54:4b:
                    91:03:2a:fe:4c:3c:5f:b0:27:32:b6:4e:5f:52:74:
                    07:5d
                Exponent: 65537 (0x10001)
        X509v3 extensions:
            X509v3 Subject Key Identifier: 
                5F:3B:3D:20:C3:B3:7C:D1:E5:28:44:ED:07:3B:AD:D8:80:07:27:FA
            X509v3 Authority Key Identifier: 
                keyid:5F:3B:3D:20:C3:B3:7C:D1:E5:28:44:ED:07:3B:AD:D8:80:07:27:FA

            X509v3 Basic Constraints: critical
                CA:FALSE
            X509v3 Key Usage: 
                Digital Signature, Non Repudiation, Key Encipherment, Data Encipherment, Certificate Sign
            X509v3 Extended Key Usage: 
                TLS Web Client Authentication, TLS Web Server Authentication
            Netscape Comment: 
                Self-signed certificate generated by Node-OPCUA Certificate utility
            X509v3 Subject Alternative Name: 
                URI:urn:raspberrypi:Node-OPCUA-Server, DNS:raspberrypi
    Signature Algorithm: sha256WithRSAEncryption
         65:3e:e3:2d:db:4d:14:5a:e5:bf:6e:da:e5:ad:07:71:4e:d4:
         66:a3:85:57:62:e0:82:02:c0:bc:20:05:7a:3d:8d:1c:c1:97:
         e6:bd:e7:36:42:08:f9:94:19:cd:aa:a4:5b:13:28:ab:d5:6f:
         6f:76:04:a8:a3:38:06:c0:46:ea:74:68:fd:98:59:93:35:b4:
         10:f9:c5:35:29:51:ad:25:6a:a8:23:f3:50:ff:d5:c4:15:d8:
         b3:a3:66:70:5b:15:e7:8c:76:6f:80:98:4a:d4:de:84:04:02:
         ed:bf:c0:20:dc:aa:bb:c8:8d:fd:18:60:bc:fa:70:b7:21:68:
         28:ef:f0:3c:70:1e:32:d9:4a:39:32:60:35:43:88:43:90:0a:
         38:9d:4d:fd:fe:19:d3:53:61:db:c9:90:53:22:18:f3:f1:bf:
         bc:8a:dc:3c:91:eb:61:af:72:15:f4:04:11:b1:82:8c:7a:e1:
         59:21:85:e6:71:8b:47:c1:d5:03:86:af:1a:e9:a2:0f:2a:30:
         e4:f7:1e:d9:59:19:fe:43:ec:e3:c1:85:46:f4:67:77:70:d7:
         b8:68:9d:f6:80:c3:d8:ca:f4:da:18:12:bd:03:35:8e:f3:fa:
         2b:a2:47:94:14:88:4e:93:5d:09:e8:e9:a9:a3:cf:c8:06:3c:
         a5:29:68:a8
-----BEGIN CERTIFICATE-----
MIIETTCCAzWgAwIBAgIUc14psqQx1k3s51+5MGFZYI3gx94wDQYJKoZIhvcNAQEL
BQAwWDELMAkGA1UEBhMCRlIxDDAKBgNVBAgMA0lERjEOMAwGA1UEBwwFUGFyaXMx
EjAQBgNVBAoMCU5vZGVPUENVQTEXMBUGA1UEAwwOTm9kZU9QQ1VBLVRFU1QwHhcN
MjAwMTAyMjEzNDA0WhcNMzQxMjI5MjEzNDA0WjBYMQswCQYDVQQGEwJGUjEMMAoG
A1UECAwDSURGMQ4wDAYDVQQHDAVQYXJpczESMBAGA1UECgwJTm9kZU9QQ1VBMRcw
FQYDVQQDDA5Ob2RlT1BDVUEtVEVTVDCCASIwDQYJKoZIhvcNAQEBBQADggEPADCC
AQoCggEBALDrjTDnBppJIoTuWx0Ir9sjW4f/Hrf375clKr/ek2mfSBGKL2kU1tDY
j6/IUznLWEYKnYGgJg/kyFUYFGISYn6dHBlcm0Kz3vFEKfw2JmEpFvmEwPmZyRwa
cGotmmjLuO7ZcFw6ygXXoyqZwptIdhLUz2QAPXbX/IHIC50Oh6tqzuj/cDrnzQ3I
iQVJXsQwtQc5f5/NqceTP+qzNBQrP54E+l+vPRsTGxIzj3q2sTDvxQ2K6880tVyu
8ejlQ+OdO0aht7lXbk3Jg9OGOan9NlDc5rc2F9MHTkTVfdUUQhW7PWFi2mm2UKoy
Y+nfvFRLkQMq/kw8X7AnMrZOX1J0B10CAwEAAaOCAQ0wggEJMB0GA1UdDgQWBBRf
Oz0gw7N80eUoRO0HO63YgAcn+jAfBgNVHSMEGDAWgBRfOz0gw7N80eUoRO0HO63Y
gAcn+jAMBgNVHRMBAf8EAjAAMAsGA1UdDwQEAwIC9DAdBgNVHSUEFjAUBggrBgEF
BQcDAgYIKwYBBQUHAwEwUgYJYIZIAYb4QgENBEUWQ1NlbGYtc2lnbmVkIGNlcnRp
ZmljYXRlIGdlbmVyYXRlZCBieSBOb2RlLU9QQ1VBIENlcnRpZmljYXRlIHV0aWxp
dHkwOQYDVR0RBDIwMIYhdXJuOnJhc3BiZXJyeXBpOk5vZGUtT1BDVUEtU2VydmVy
ggtyYXNwYmVycnlwaTANBgkqhkiG9w0BAQsFAAOCAQEAZT7jLdtNFFrlv27a5a0H
cU7UZqOFV2LgggLAvCAFej2NHMGX5r3nNkII+ZQZzaqkWxMoq9Vvb3YEqKM4BsBG
6nRo/ZhZkzW0EPnFNSlRrSVqqCPzUP/VxBXYs6NmcFsV54x2b4CYStTehAQC7b/A
INyqu8iN/RhgvPpwtyFoKO/wPHAeMtlKOTJgNUOIQ5AKOJ1N/f4Z01Nh28mQUyIY
8/G/vIrcPJHrYa9yFfQEEbGCjHrhWSGF5nGLR8HVA4avGumiDyow5Pce2VkZ/kPs
48GFRvRnd3DXuGid9oDD2Mr02hgSvQM1jvP6K6JHlBSITpNdCejpqaPPyAY8pSlo
qA==
-----END CERTIFICATE-----
