Certificate:
    Data:
        Version: 3 (0x2)
        Serial Number:
            1b:55:4a:30:52:39:c6:bf:d6:ee:62:b9:95:d0:11:d4:9f:96:4c:ae
        Signature Algorithm: sha256WithRSAEncryption
        Issuer: C = FR, ST = IDF, L = Paris, O = NodeOPCUA, CN = NodeOPCUA-TEST
        Validity
            Not Before: Jan  2 20:14:08 2020 GMT
            Not After : Dec 29 20:14:08 2034 GMT
        Subject: C = FR, ST = IDF, L = Paris, O = NodeOPCUA, CN = NodeOPCUA-TEST
        Subject Public Key Info:
            Public Key Algorithm: rsaEncryption
                RSA Public-Key: (2048 bit)
                Modulus:
                    00:dc:e4:a0:26:df:c0:55:2e:0a:1e:11:38:fc:7f:
                    1c:49:fa:6b:15:1a:bb:f3:fa:61:c5:40:54:d5:2a:
                    18:fd:08:5c:43:a6:6f:aa:03:7e:20:8e:c9:00:6a:
                    93:9b:a2:35:7e:5c:41:54:56:14:d4:b8:6f:8e:21:
                    c7:c8:99:f5:07:d3:63:09:15:a5:90:c0:1e:43:b4:
                    dd:85:36:74:a8:43:fa:fa:aa:3d:2c:c5:3e:10:e1:
                    29:aa:a0:4a:d8:d3:d2:92:64:c5:18:36:c4:5d:ec:
                    0b:4c:ef:fb:62:63:3c:c3:ed:52:1a:eb:79:a2:f2:
                    df:19:59:e5:97:58:47:e3:64:b5:8a:21:48:5e:0f:
                    a1:20:7c:df:36:2a:6a:d4:a0:50:2b:53:ad:a0:f5:
                    fe:53:ef:1d:3e:6e:4f:65:cb:58:f5:e3:e5:1c:2d:
                    a4:2a:45:bb:2e:37:a8:3e:dc:ea:3c:16:28:de:22:
                    6a:62:77:d1:a8:d1:f0:cb:71:ac:83:6b:63:74:37:
                    1a:2b:fe:e9:a4:a3:f0:9d:ce:6d:b9:ee:71:98:e9:
                    cb:a7:4e:66:c4:16:d6:4b:63:24:cd:25:45:12:e9:
                    99:91:9e:c0:59:ed:a9:ab:45:d9:03:96:e3:96:2c:
                    21:b0:bd:3a:4a:f8:af:2e:c3:87:2f:25:d1:7b:82:
                    e7:41
                Exponent: 65537 (0x10001)
        X509v3 extensions:
            X509v3 Subject Key Identifier: 
                F1:53:80:0A:6A:F8:76:17:9C:14:2B:16:F1:5E:28:55:8B:5F:2B:4A
            X509v3 Authority Key Identifier: 
                keyid:F1:53:80:0A:6A:F8:76:17:9C:14:2B:16:F1:5E:28:55:8B:5F:2B:4A

            X509v3 Basic Constraints: critical
                CA:FALSE
            X509v3 Key Usage: 
                Digital Signature, Non Repudiation, Key Encipherment, Data Encipherment, Certificate Sign
            X509v3 Extended Key Usage: 
                TLS Web Client Authentication, TLS Web Server Authentication
            Netscape Comment: 
                Self-signed certificate generated by Node-OPCUA Certificate utility
            X509v3 Subject Alternative Name: 
                URI:urn:raspberrypi:Node-OPCUA-Server, DNS:raspberrypi
    Signature Algorithm: sha256WithRSAEncryption
         72:6c:c7:ec:bb:07:8a:fb:02:f4:63:e6:82:bf:5d:3f:76:8b:
         30:b0:47:ac:6e:a6:52:e9:d2:5c:21:37:a4:58:e4:f1:80:81:
         c6:ef:e3:31:86:a5:d5:0c:2c:4f:f9:b3:72:64:b8:48:96:8a:
         b7:9e:bd:e3:5e:32:e3:15:50:3c:ae:8c:21:b4:ea:2c:08:31:
         be:bb:40:52:58:d6:ff:97:5f:a5:0e:ef:79:8e:84:80:c6:84:
         5e:49:fe:6e:6b:6b:e4:da:33:a3:b7:68:cc:da:9e:54:52:d4:
         bf:b8:28:82:6a:3d:5d:72:d0:c2:c8:da:54:6c:06:0e:c2:82:
         83:31:4b:16:b1:7a:01:77:9b:fb:6b:2c:9b:fc:71:3d:13:91:
         26:41:ae:f4:00:c1:14:c6:6a:01:da:e3:27:48:0c:aa:2e:df:
         f4:d1:29:f1:aa:2d:c2:ea:59:f9:dc:74:23:1c:18:fb:38:ea:
         53:09:ab:66:f5:e8:08:1f:40:11:80:ba:9c:2d:5a:7d:17:76:
         8b:ae:9c:42:69:97:67:29:a7:61:58:4c:02:99:fb:89:6e:07:
         50:92:69:05:08:5c:81:82:5c:bf:f8:1c:d0:6b:94:4e:41:d3:
         1b:42:dc:32:6a:fe:a0:b4:21:7b:23:f5:a2:64:35:b9:bb:1d:
         1c:e4:a2:b4
-----BEGIN CERTIFICATE-----
MIIETTCCAzWgAwIBAgIUG1VKMFI5xr/W7mK5ldAR1J+WTK4wDQYJKoZIhvcNAQEL
BQAwWDELMAkGA1UEBhMCRlIxDDAKBgNVBAgMA0lERjEOMAwGA1UEBwwFUGFyaXMx
EjAQBgNVBAoMCU5vZGVPUENVQTEXMBUGA1UEAwwOTm9kZU9QQ1VBLVRFU1QwHhcN
MjAwMTAyMjAxNDA4WhcNMzQxMjI5MjAxNDA4WjBYMQswCQYDVQQGEwJGUjEMMAoG
A1UECAwDSURGMQ4wDAYDVQQHDAVQYXJpczESMBAGA1UECgwJTm9kZU9QQ1VBMRcw
FQYDVQQDDA5Ob2RlT1BDVUEtVEVTVDCCASIwDQYJKoZIhvcNAQEBBQADggEPADCC
AQoCggEBANzkoCbfwFUuCh4ROPx/HEn6axUau/P6YcVAVNUqGP0IXEOmb6oDfiCO
yQBqk5uiNX5cQVRWFNS4b44hx8iZ9QfTYwkVpZDAHkO03YU2dKhD+vqqPSzFPhDh
KaqgStjT0pJkxRg2xF3sC0zv+2JjPMPtUhrreaLy3xlZ5ZdYR+NktYohSF4PoSB8
3zYqatSgUCtTraD1/lPvHT5uT2XLWPXj5RwtpCpFuy43qD7c6jwWKN4iamJ30ajR
8MtxrINrY3Q3Giv+6aSj8J3ObbnucZjpy6dOZsQW1ktjJM0lRRLpmZGewFntqatF
2QOW45YsIbC9Okr4ry7Dhy8l0XuC50ECAwEAAaOCAQ0wggEJMB0GA1UdDgQWBBTx
U4AKavh2F5wUKxbxXihVi18rSjAfBgNVHSMEGDAWgBTxU4AKavh2F5wUKxbxXihV
i18rSjAMBgNVHRMBAf8EAjAAMAsGA1UdDwQEAwIC9DAdBgNVHSUEFjAUBggrBgEF
BQcDAgYIKwYBBQUHAwEwUgYJYIZIAYb4QgENBEUWQ1NlbGYtc2lnbmVkIGNlcnRp
ZmljYXRlIGdlbmVyYXRlZCBieSBOb2RlLU9QQ1VBIENlcnRpZmljYXRlIHV0aWxp
dHkwOQYDVR0RBDIwMIYhdXJuOnJhc3BiZXJyeXBpOk5vZGUtT1BDVUEtU2VydmVy
ggtyYXNwYmVycnlwaTANBgkqhkiG9w0BAQsFAAOCAQEAcmzH7LsHivsC9GPmgr9d
P3aLMLBHrG6mUunSXCE3pFjk8YCBxu/jMYal1QwsT/mzcmS4SJaKt569414y4xVQ
PK6MIbTqLAgxvrtAUljW/5dfpQ7veY6EgMaEXkn+bmtr5Nozo7dozNqeVFLUv7go
gmo9XXLQwsjaVGwGDsKCgzFLFrF6AXeb+2ssm/xxPRORJkGu9ADBFMZqAdrjJ0gM
qi7f9NEp8aotwupZ+dx0IxwY+zjqUwmrZvXoCB9AEYC6nC1afRd2i66cQmmXZymn
YVhMApn7iW4HUJJpBQhcgYJcv/gc0GuUTkHTG0LcMmr+oLQheyP1omQ1ubsdHOSi
tA==
-----END CERTIFICATE-----
