Certificate:
    Data:
        Version: 3 (0x2)
        Serial Number:
            70:e1:31:44:32:f4:f1:49:c5:45:db:4a:78:bf:b0:4e:a2:6a:c6:6c
        Signature Algorithm: sha256WithRSAEncryption
        Issuer: C = FR, ST = IDF, L = Paris, O = NodeOPCUA, CN = NodeOPCUA-TEST
        Validity
            Not Before: Jan  2 21:34:12 2020 GMT
            Not After : Dec 29 21:34:12 2034 GMT
        Subject: C = FR, ST = IDF, L = Paris, O = NodeOPCUA, CN = NodeOPCUA-TEST
        Subject Public Key Info:
            Public Key Algorithm: rsaEncryption
                RSA Public-Key: (2048 bit)
                Modulus:
                    00:b9:57:70:52:5d:e5:a2:ec:c6:43:7e:c7:03:00:
                    9f:2a:8d:c3:d4:af:98:10:d3:5b:dd:b8:2d:2e:53:
                    dc:a9:99:b1:59:ec:eb:0f:92:8f:2a:84:8a:83:90:
                    a5:d6:3a:36:77:5e:cb:61:65:fd:ce:7f:2a:e0:8a:
                    b0:4b:e8:d3:70:04:7d:20:5f:e6:0b:4d:8d:72:7a:
                    19:24:cc:14:75:49:5e:bc:aa:3b:89:ee:ee:94:52:
                    7e:81:db:f5:74:11:7b:ad:b6:eb:98:bd:34:65:9a:
                    69:93:09:46:e3:8a:60:0e:b4:9f:67:d7:4b:c7:24:
                    3c:a9:7a:0c:c8:75:b6:fd:86:52:6d:83:13:86:2b:
                    b8:70:56:28:dd:84:f0:4e:f9:3e:77:f5:a1:4f:b2:
                    5a:a7:f0:fe:84:db:cc:57:f1:f3:79:6b:28:ae:45:
                    44:61:4b:52:d4:68:96:ed:0a:b9:a7:28:02:55:d5:
                    9c:bc:de:68:64:da:c1:b8:9b:02:04:4b:92:7e:5d:
                    f8:a2:ed:43:6d:c1:38:d6:44:f9:e6:d1:23:bd:45:
                    c3:11:a7:37:ca:1d:55:2d:bf:f8:59:54:63:92:b8:
                    ea:39:49:9d:a1:a9:5a:8b:d9:0a:a0:ab:b5:0c:46:
                    54:6b:b0:b4:d7:ad:3c:6c:d8:fc:80:37:57:37:85:
                    c2:67
                Exponent: 65537 (0x10001)
        X509v3 extensions:
            X509v3 Subject Key Identifier: 
                E6:30:16:F1:2A:47:C3:81:B5:21:1F:23:AF:4D:00:6D:73:32:6C:B2
            X509v3 Authority Key Identifier: 
                keyid:E6:30:16:F1:2A:47:C3:81:B5:21:1F:23:AF:4D:00:6D:73:32:6C:B2

            X509v3 Basic Constraints: critical
                CA:FALSE
            X509v3 Key Usage: 
                Digital Signature, Non Repudiation, Key Encipherment, Data Encipherment, Certificate Sign
            X509v3 Extended Key Usage: 
                TLS Web Client Authentication, TLS Web Server Authentication
            Netscape Comment: 
                Self-signed certificate generated by Node-OPCUA Certificate utility
            X509v3 Subject Alternative Name: 
                URI:urn:raspberrypi:Node-OPCUA-Server, DNS:raspberrypi
    Signature Algorithm: sha256WithRSAEncryption
         86:47:e7:dd:12:d7:fc:b4:94:e0:bb:14:9f:e1:72:6b:b4:94:
         bb:2d:4c:de:7e:2d:6a:30:ed:cf:be:21:45:84:9f:0d:f6:ee:
         18:a6:31:b7:5f:98:a9:ba:16:64:06:38:30:f8:3b:f9:04:76:
         0b:0c:0b:db:01:cf:55:9f:75:bd:cb:7e:f3:82:fd:0f:d3:a6:
         45:df:24:49:bb:a9:75:9b:af:a0:01:36:b5:81:90:2c:a1:fa:
         05:76:13:98:4c:4a:38:d3:25:6f:16:cc:20:65:9d:15:c5:9b:
         1b:12:59:28:6d:3f:4d:48:19:fb:89:fd:5c:3b:ea:c0:aa:32:
         35:f0:30:8a:f7:e2:80:b6:25:c6:50:9d:2c:d3:1e:12:f8:4b:
         40:8f:7f:17:f0:bc:f0:45:14:bf:aa:a4:05:2f:7f:54:dc:ea:
         c1:fe:dd:9f:97:b0:c6:09:7d:c0:8a:17:96:30:e1:f3:67:0c:
         45:ed:fe:9c:56:67:c1:8a:b0:48:f9:10:2c:87:75:d9:d9:af:
         71:2d:9a:a7:4f:f5:3c:ee:78:45:65:b9:a4:15:d9:49:c0:d1:
         2a:c5:a8:d4:3d:4a:e4:6b:21:48:1e:1c:2a:3d:22:e1:a2:7e:
         5c:26:b2:47:c2:53:02:99:74:81:e2:49:23:56:ef:07:86:ef:
         33:68:2d:d8
-----BEGIN CERTIFICATE-----
MIIETTCCAzWgAwIBAgIUcOExRDL08UnFRdtKeL+wTqJqxmwwDQYJKoZIhvcNAQEL
BQAwWDELMAkGA1UEBhMCRlIxDDAKBgNVBAgMA0lERjEOMAwGA1UEBwwFUGFyaXMx
EjAQBgNVBAoMCU5vZGVPUENVQTEXMBUGA1UEAwwOTm9kZU9QQ1VBLVRFU1QwHhcN
MjAwMTAyMjEzNDEyWhcNMzQxMjI5MjEzNDEyWjBYMQswCQYDVQQGEwJGUjEMMAoG
A1UECAwDSURGMQ4wDAYDVQQHDAVQYXJpczESMBAGA1UECgwJTm9kZU9QQ1VBMRcw
FQYDVQQDDA5Ob2RlT1BDVUEtVEVTVDCCASIwDQYJKoZIhvcNAQEBBQADggEPADCC
AQoCggEBALlXcFJd5aLsxkN+xwMAnyqNw9SvmBDTW924LS5T3KmZsVns6w+SjyqE
ioOQpdY6Nndey2Fl/c5/KuCKsEvo03AEfSBf5gtNjXJ6GSTMFHVJXryqO4nu7pRS
foHb9XQRe62265i9NGWaaZMJRuOKYA60n2fXS8ckPKl6DMh1tv2GUm2DE4YruHBW
KN2E8E75Pnf1oU+yWqfw/oTbzFfx83lrKK5FRGFLUtRolu0KuacoAlXVnLzeaGTa
wbibAgRLkn5d+KLtQ23BONZE+ebRI71FwxGnN8odVS2/+FlUY5K46jlJnaGpWovZ
CqCrtQxGVGuwtNetPGzY/IA3VzeFwmcCAwEAAaOCAQ0wggEJMB0GA1UdDgQWBBTm
MBbxKkfDgbUhHyOvTQBtczJssjAfBgNVHSMEGDAWgBTmMBbxKkfDgbUhHyOvTQBt
czJssjAMBgNVHRMBAf8EAjAAMAsGA1UdDwQEAwIC9DAdBgNVHSUEFjAUBggrBgEF
BQcDAgYIKwYBBQUHAwEwUgYJYIZIAYb4QgENBEUWQ1NlbGYtc2lnbmVkIGNlcnRp
ZmljYXRlIGdlbmVyYXRlZCBieSBOb2RlLU9QQ1VBIENlcnRpZmljYXRlIHV0aWxp
dHkwOQYDVR0RBDIwMIYhdXJuOnJhc3BiZXJyeXBpOk5vZGUtT1BDVUEtU2VydmVy
ggtyYXNwYmVycnlwaTANBgkqhkiG9w0BAQsFAAOCAQEAhkfn3RLX/LSU4LsUn+Fy
a7SUuy1M3n4tajDtz74hRYSfDfbuGKYxt1+YqboWZAY4MPg7+QR2CwwL2wHPVZ91
vct+84L9D9OmRd8kSbupdZuvoAE2tYGQLKH6BXYTmExKONMlbxbMIGWdFcWbGxJZ
KG0/TUgZ+4n9XDvqwKoyNfAwivfigLYlxlCdLNMeEvhLQI9/F/C88EUUv6qkBS9/
VNzqwf7dn5ewxgl9wIoXljDh82cMRe3+nFZnwYqwSPkQLId12dmvcS2ap0/1PO54
RWW5pBXZScDRKsWo1D1K5GshSB4cKj0i4aJ+XCayR8JTApl0geJJI1bvB4bvM2gt
2A==
-----END CERTIFICATE-----
