Certificate:
    Data:
        Version: 3 (0x2)
        Serial Number:
            2a:0a:8b:75:21:58:7d:9f:b2:22:4d:0e:e2:b7:bb:a6:6b:d3:bb:c7
        Signature Algorithm: sha256WithRSAEncryption
        Issuer: C = FR, ST = IDF, L = Paris, O = NodeOPCUA, CN = NodeOPCUA-TEST
        Validity
            Not Before: Jan  2 20:14:02 2020 GMT
            Not After : Dec 29 20:14:02 2034 GMT
        Subject: C = FR, ST = IDF, L = Paris, O = NodeOPCUA, CN = NodeOPCUA-TEST
        Subject Public Key Info:
            Public Key Algorithm: rsaEncryption
                RSA Public-Key: (2048 bit)
                Modulus:
                    00:c3:43:e2:81:62:ee:c2:db:29:4a:06:08:ba:7a:
                    85:fc:56:3e:51:60:df:c5:a1:78:59:48:24:07:80:
                    af:d7:59:22:8a:40:b6:a7:e8:e4:1c:24:d1:b4:1b:
                    4a:14:6a:26:a9:40:f1:83:1d:fc:f0:0c:bd:12:88:
                    55:06:8f:ab:45:f8:f1:04:ab:35:84:d4:d5:39:79:
                    d9:e4:f8:9d:80:16:fe:c7:83:f7:8b:eb:af:09:b2:
                    72:b1:68:bf:be:9e:e0:11:71:3d:01:ab:19:17:88:
                    79:1b:5e:c5:a7:55:d5:f3:72:dd:87:ef:d8:b7:7e:
                    92:42:0f:0b:37:31:f0:42:40:2a:e7:fd:17:e6:dc:
                    1b:83:0c:8e:05:1d:97:bb:bc:0d:a4:52:10:32:39:
                    dd:74:9e:c3:c2:92:51:3e:35:73:18:e1:d0:c0:76:
                    8d:dc:1f:ee:6a:85:db:cc:4b:9c:07:e5:b9:6a:8c:
                    b8:8a:2e:3d:c2:d3:99:5d:a8:b3:59:ef:aa:c5:5b:
                    84:70:85:e8:d0:bb:be:fa:21:5d:8b:f5:dc:e5:33:
                    02:3e:4d:e7:dc:c5:ae:63:dc:a3:c6:ed:e6:3c:84:
                    05:3d:ee:19:03:65:00:2a:71:71:6c:04:a5:6d:9d:
                    cd:4c:cb:b0:d9:e8:1a:81:67:8c:d4:c5:02:ce:4d:
                    7d:d1
                Exponent: 65537 (0x10001)
        X509v3 extensions:
            X509v3 Subject Key Identifier: 
                55:28:DA:A2:55:1F:05:F8:5B:2D:EC:E4:E9:6B:15:1F:89:6F:EA:24
            X509v3 Authority Key Identifier: 
                keyid:55:28:DA:A2:55:1F:05:F8:5B:2D:EC:E4:E9:6B:15:1F:89:6F:EA:24

            X509v3 Basic Constraints: critical
                CA:FALSE
            X509v3 Key Usage: 
                Digital Signature, Non Repudiation, Key Encipherment, Data Encipherment, Certificate Sign
            X509v3 Extended Key Usage: 
                TLS Web Client Authentication, TLS Web Server Authentication
            Netscape Comment: 
                Self-signed certificate generated by Node-OPCUA Certificate utility
            X509v3 Subject Alternative Name: 
                URI:urn:raspberrypi:Node-OPCUA-Server, DNS:raspberrypi
    Signature Algorithm: sha256WithRSAEncryption
         67:fa:66:40:1d:49:d3:3c:27:50:5a:71:12:d4:2e:1c:e2:ed:
         4d:9d:4d:71:66:15:9a:2e:48:12:76:dc:dc:8d:f7:c5:78:20:
         ea:47:04:aa:d7:89:65:94:eb:93:4b:02:18:87:c4:5f:c5:c4:
         97:98:56:cf:30:19:ad:f8:16:02:e8:75:a8:ca:3e:7c:e9:d1:
         04:ff:bc:49:26:af:d8:24:68:3f:2a:ea:ca:cc:b8:b8:f2:07:
         43:28:25:1c:78:77:54:a8:9e:d4:5c:c9:09:da:5b:b1:10:30:
         3e:d8:37:f5:fc:de:b1:b1:8d:a3:49:ee:3c:6a:dc:72:91:55:
         a6:ec:5b:35:0c:7b:d5:1d:24:e7:84:51:db:db:79:2a:e8:3e:
         4f:69:f0:a3:0a:c5:52:72:e5:79:fa:ec:5e:30:bd:3e:ae:ee:
         a1:91:74:85:b3:2b:d3:8c:ea:02:3e:2d:c7:ed:02:63:88:ec:
         32:cd:65:bf:c4:e1:05:b4:ec:3d:3a:3f:7a:65:91:97:1c:10:
         d1:3f:b8:69:4b:e2:16:bb:74:59:21:90:63:fc:b1:e4:78:d7:
         7f:65:9a:3e:89:9a:54:88:c3:ff:08:22:f4:e8:e6:d9:f8:84:
         21:6f:c2:52:e3:a1:56:34:9b:84:01:75:b8:33:29:19:66:7a:
         6f:31:a9:6b
-----BEGIN CERTIFICATE-----
MIIETTCCAzWgAwIBAgIUKgqLdSFYfZ+yIk0O4re7pmvTu8cwDQYJKoZIhvcNAQEL
BQAwWDELMAkGA1UEBhMCRlIxDDAKBgNVBAgMA0lERjEOMAwGA1UEBwwFUGFyaXMx
EjAQBgNVBAoMCU5vZGVPUENVQTEXMBUGA1UEAwwOTm9kZU9QQ1VBLVRFU1QwHhcN
MjAwMTAyMjAxNDAyWhcNMzQxMjI5MjAxNDAyWjBYMQswCQYDVQQGEwJGUjEMMAoG
A1UECAwDSURGMQ4wDAYDVQQHDAVQYXJpczESMBAGA1UECgwJTm9kZU9QQ1VBMRcw
FQYDVQQDDA5Ob2RlT1BDVUEtVEVTVDCCASIwDQYJKoZIhvcNAQEBBQADggEPADCC
AQoCggEBAMND4oFi7sLbKUoGCLp6hfxWPlFg38WheFlIJAeAr9dZIopAtqfo5Bwk
0bQbShRqJqlA8YMd/PAMvRKIVQaPq0X48QSrNYTU1Tl52eT4nYAW/seD94vrrwmy
crFov76e4BFxPQGrGReIeRtexadV1fNy3Yfv2Ld+kkIPCzcx8EJAKuf9F+bcG4MM
jgUdl7u8DaRSEDI53XSew8KSUT41cxjh0MB2jdwf7mqF28xLnAfluWqMuIouPcLT
mV2os1nvqsVbhHCF6NC7vvohXYv13OUzAj5N59zFrmPco8bt5jyEBT3uGQNlACpx
cWwEpW2dzUzLsNnoGoFnjNTFAs5NfdECAwEAAaOCAQ0wggEJMB0GA1UdDgQWBBRV
KNqiVR8F+Fst7OTpaxUfiW/qJDAfBgNVHSMEGDAWgBRVKNqiVR8F+Fst7OTpaxUf
iW/qJDAMBgNVHRMBAf8EAjAAMAsGA1UdDwQEAwIC9DAdBgNVHSUEFjAUBggrBgEF
BQcDAgYIKwYBBQUHAwEwUgYJYIZIAYb4QgENBEUWQ1NlbGYtc2lnbmVkIGNlcnRp
ZmljYXRlIGdlbmVyYXRlZCBieSBOb2RlLU9QQ1VBIENlcnRpZmljYXRlIHV0aWxp
dHkwOQYDVR0RBDIwMIYhdXJuOnJhc3BiZXJyeXBpOk5vZGUtT1BDVUEtU2VydmVy
ggtyYXNwYmVycnlwaTANBgkqhkiG9w0BAQsFAAOCAQEAZ/pmQB1J0zwnUFpxEtQu
HOLtTZ1NcWYVmi5IEnbc3I33xXgg6kcEqteJZZTrk0sCGIfEX8XEl5hWzzAZrfgW
Auh1qMo+fOnRBP+8SSav2CRoPyrqysy4uPIHQyglHHh3VKie1FzJCdpbsRAwPtg3
9fzesbGNo0nuPGrccpFVpuxbNQx71R0k54RR29t5Kug+T2nwowrFUnLlefrsXjC9
Pq7uoZF0hbMr04zqAj4tx+0CY4jsMs1lv8ThBbTsPTo/emWRlxwQ0T+4aUviFrt0
WSGQY/yx5HjXf2WaPomaVIjD/wgi9Ojm2fiEIW/CUuOhVjSbhAF1uDMpGWZ6bzGp
aw==
-----END CERTIFICATE-----
